; Function Attrs: mustprogress nounwind uwtable
define dso_local noundef i64 @_ZNK4llvm6object15XCOFFObjectFile29getSectionFileOffsetToRawDataENS0_11DataRefImplE(ptr noundef nonnull align 8 dereferenceable(96) %0, i64 %1) local_unnamed_addr #0 align 2 {
  %3 = load ptr, ptr %0, align 8
  %4 = getelementptr inbounds i8, ptr %3, i64 64
  %5 = load ptr, ptr %4, align 8
  %6 = tail call noundef zeroext i1 %5(ptr noundef nonnull align 8 dereferenceable(96) %0) #23
  %7 = inttoptr i64 %1 to ptr
  br i1 %6, label %8, label %11

8:                                                ; preds = %2
  %9 = getelementptr inbounds nuw i8, ptr %7, i64 32
  call void @llvm.assume(i1 true) [ "align"(ptr %9, i64 1) ]
  %.0.copyload.i.i.i = load i64, ptr %9, align 1
  %10 = tail call noundef i64 @llvm.bswap.i64(i64 %.0.copyload.i.i.i)
  br label %15

11:                                               ; preds = %2
  %12 = getelementptr inbounds nuw i8, ptr %7, i64 20
  call void @llvm.assume(i1 true) [ "align"(ptr %12, i64 1) ]
  %.0.copyload.i.i.i4 = load i32, ptr %12, align 1
  %13 = tail call noundef i32 @llvm.bswap.i32(i32 %.0.copyload.i.i.i4)
  %14 = zext i32 %13 to i64
  br label %15

15:                                               ; preds = %11, %8
  %.0 = phi i64 [ %10, %8 ], [ %14, %11 ]
  ret i64 %.0
}